; Function Attrs: mustprogress uwtable
define internal fastcc void @_ZN11OpenImageIO6v3_1_0L10morph_implIfhEEbRNS0_8ImageBufERKS2_iiNS0_7MorphOpENS0_3ROIEi(ptr noundef nonnull align 8 dereferenceable(16) %0, ptr noundef nonnull align 8 dereferenceable(16) %1, i32 noundef %2, i32 noundef %3, i32 noundef range(i32 0, 2) %4, ptr noundef readonly byval(%"struct.OpenImageIO::v3_1_0::ROI") align 8 captures(none) %5, i32 noundef %6) unnamed_addr #5 personality ptr @__gxx_personality_v0 {
  %8 = alloca i32, align 4
  %9 = alloca i32, align 4
  %10 = alloca i32, align 4
  %11 = alloca %"class.OpenImageIO::v3_1_0::paropt", align 8
  %12 = alloca %"class.std::function", align 8
  store i32 %2, ptr %8, align 4, !tbaa !3
  store i32 %3, ptr %9, align 4, !tbaa !3
  store i32 %4, ptr %10, align 4, !tbaa !330
  store i32 %6, ptr %11, align 8, !tbaa !197
  %13 = getelementptr inbounds nuw i8, ptr %11, i64 4
  store i16 0, ptr %13, align 4, !tbaa !202
  %14 = getelementptr inbounds nuw i8, ptr %11, i64 6
  store i16 1, ptr %14, align 2, !tbaa !203
  %15 = getelementptr inbounds nuw i8, ptr %11, i64 8
  store i64 1024, ptr %15, align 8, !tbaa !204
  %16 = getelementptr inbounds nuw i8, ptr %11, i64 16
  store ptr null, ptr %16, align 8, !tbaa !205
  %17 = getelementptr inbounds nuw i8, ptr %11, i64 24
  store i8 0, ptr %17, align 8, !tbaa !206
  %18 = getelementptr inbounds nuw i8, ptr %12, i64 16
  %19 = getelementptr inbounds nuw i8, ptr %12, i64 24
  %20 = getelementptr inbounds nuw i8, ptr %12, i64 8
  store i64 0, ptr %20, align 8
  %21 = tail call noalias noundef nonnull dereferenceable(40) ptr @_Znwm(i64 noundef 40) #30
  store ptr %8, ptr %21, align 16, !tbaa !322
  %.sroa.5.0..sroa_idx = getelementptr inbounds nuw i8, ptr %21, i64 8
  store ptr %9, ptr %.sroa.5.0..sroa_idx, align 8, !tbaa !322
  %.sroa.6.0..sroa_idx = getelementptr inbounds nuw i8, ptr %21, i64 16
  store ptr %0, ptr %.sroa.6.0..sroa_idx, align 16, !tbaa !137
  %.sroa.7.0..sroa_idx = getelementptr inbounds nuw i8, ptr %21, i64 24
  store ptr %1, ptr %.sroa.7.0..sroa_idx, align 8, !tbaa !137
  %.sroa.8.0..sroa_idx = getelementptr inbounds nuw i8, ptr %21, i64 32
  store ptr %10, ptr %.sroa.8.0..sroa_idx, align 16, !tbaa !211
  store ptr %21, ptr %12, align 8, !tbaa !211
  store ptr @_ZNSt17_Function_handlerIFvN11OpenImageIO6v3_1_03ROIEEZNS1_L10morph_implIfhEEbRNS1_8ImageBufERKS5_iiNS1_7MorphOpES2_iEUlS2_E_E9_M_invokeERKSt9_Any_dataOS2_, ptr %19, align 8, !tbaa !212
  store ptr @_ZNSt17_Function_handlerIFvN11OpenImageIO6v3_1_03ROIEEZNS1_L10morph_implIfhEEbRNS1_8ImageBufERKS5_iiNS1_7MorphOpES2_iEUlS2_E_E10_M_managerERSt9_Any_dataRKSC_St18_Manager_operation, ptr %18, align 8, !tbaa !215
  invoke void @_ZN11OpenImageIO6v3_1_012ImageBufAlgo14parallel_imageENS0_3ROIENS0_6paroptESt8functionIFvS2_EE(ptr noundef nonnull byval(%"struct.OpenImageIO::v3_1_0::ROI") align 8 %5, ptr noundef nonnull byval(%"class.OpenImageIO::v3_1_0::paropt") align 8 %11, ptr noundef nonnull %12)
          to label %22 unwind label %29

22:                                               ; preds = %7
  %23 = load ptr, ptr %18, align 8, !tbaa !215
  %.not.i = icmp eq ptr %23, null
  br i1 %.not.i, label %_ZNSt14_Function_baseD2Ev.exit, label %24

24:                                               ; preds = %22
  %25 = invoke noundef zeroext i1 %23(ptr noundef nonnull align 8 dereferenceable(32) %12, ptr noundef nonnull align 8 dereferenceable(32) %12, i32 noundef 3)
          to label %_ZNSt14_Function_baseD2Ev.exit unwind label %26

26:                                               ; preds = %24
  %27 = landingpad { ptr, i32 }
          catch ptr null
  %28 = extractvalue { ptr, i32 } %27, 0
  call void @__clang_call_terminate(ptr %28) #31
  unreachable

_ZNSt14_Function_baseD2Ev.exit:                   ; preds = %22, %24
  ret void

29:                                               ; preds = %7
  %30 = landingpad { ptr, i32 }
          cleanup
  %31 = load ptr, ptr %18, align 8, !tbaa !215
  %.not.i4 = icmp eq ptr %31, null
  br i1 %.not.i4, label %_ZNSt14_Function_baseD2Ev.exit5, label %32

32:                                               ; preds = %29
  %33 = invoke noundef zeroext i1 %31(ptr noundef nonnull align 8 dereferenceable(32) %12, ptr noundef nonnull align 8 dereferenceable(32) %12, i32 noundef 3)
          to label %_ZNSt14_Function_baseD2Ev.exit5 unwind label %34

34:                                               ; preds = %32
  %35 = landingpad { ptr, i32 }
          catch ptr null
  %36 = extractvalue { ptr, i32 } %35, 0
  call void @__clang_call_terminate(ptr %36) #31
  unreachable

_ZNSt14_Function_baseD2Ev.exit5:                  ; preds = %29, %32
  resume { ptr, i32 } %30
}